target datalayout = "e-m:e-p270:32:32-p271:32:32-p272:64:64-i64:64-i128:128-f80:128-n8:16:32:64-S128"
target triple = "x86_64-pc-linux-gnu"

%struct.RelFileLocator = type { i32, i32, i32 }
%struct.PendingRelDelete = type { %struct.RelFileLocator, i32, i8, i32, ptr }

@pendingDeletes = internal global ptr null, align 8

; Function Attrs: nounwind uwtable
define dso_local void @PostPrepare_smgr() #0 {
  %1 = alloca ptr, align 8
  %2 = alloca ptr, align 8
  call void @llvm.lifetime.start.p0(i64 8, ptr %1) #8
  call void @llvm.lifetime.start.p0(i64 8, ptr %2) #8
  %3 = load ptr, ptr @pendingDeletes, align 8
  store ptr %3, ptr %1, align 8
  br label %4

4:                                                ; preds = %13, %0
  %5 = load ptr, ptr %1, align 8
  %6 = icmp ne ptr %5, null
  br i1 %6, label %7, label %15

7:                                                ; preds = %4
  %8 = load ptr, ptr %1, align 8
  %9 = getelementptr inbounds nuw %struct.PendingRelDelete, ptr %8, i32 0, i32 4
  %10 = load ptr, ptr %9, align 8
  store ptr %10, ptr %2, align 8
  %11 = load ptr, ptr %2, align 8
  store ptr %11, ptr @pendingDeletes, align 8
  %12 = load ptr, ptr %1, align 8
  call void @pfree(ptr noundef %12)
  br label %13

13:                                               ; preds = %7
  %14 = load ptr, ptr %2, align 8
  store ptr %14, ptr %1, align 8
  br label %4, !llvm.loop !23

15:                                               ; preds = %4
  call void @llvm.lifetime.end.p0(i64 8, ptr %2) #8
  call void @llvm.lifetime.end.p0(i64 8, ptr %1) #8
  ret void
}