; Function Attrs: nounwind uwtable
define dso_local void @PostPrepare_smgr() local_unnamed_addr #0 {
  %1 = load ptr, ptr @pendingDeletes, align 8
  %.not5 = icmp eq ptr %1, null
  br i1 %.not5, label %._crit_edge, label %.lr.ph

.lr.ph:                                           ; preds = %0, %.lr.ph
  %.06 = phi ptr [ %3, %.lr.ph ], [ %1, %0 ]
  %2 = getelementptr inbounds nuw i8, ptr %.06, i64 24
  %3 = load ptr, ptr %2, align 8
  store ptr %3, ptr @pendingDeletes, align 8
  tail call void @pfree(ptr noundef nonnull %.06) #8
  %.not = icmp eq ptr %3, null
  br i1 %.not, label %._crit_edge, label %.lr.ph, !llvm.loop !23

._crit_edge:                                      ; preds = %.lr.ph, %0
  ret void
}